---
triple:          'arm64-apple-darwin'
binary-path:     chip8
relocations:
  - { offsetInCU: 0x9B, offset: 0x9B, size: 0x8, addend: 0x0, symName: __ZL7fontset, symObjAddr: 0x437B, symBinAddr: 0x100007D57, symSize: 0x0 }
  - { offsetInCU: 0x30E4, offset: 0x30E4, size: 0x8, addend: 0x0, symName: __ZNSt3__16chronomiB8ue170006IxNS_5ratioILl1ELl1000000000EEExS3_EENS_11common_typeIJNS0_8durationIT_T0_EENS5_IT1_T2_EEEE4typeERKS8_RKSB_, symObjAddr: 0x3FA4, symBinAddr: 0x100007710, symSize: 0x70 }
  - { offsetInCU: 0x3385, offset: 0x3385, size: 0x8, addend: 0x0, symName: __ZNSt3__16chronomiB8ue170006INS0_12steady_clockENS0_8durationIxNS_5ratioILl1ELl1000000000EEEEES6_EENS_11common_typeIJT0_T1_EE4typeERKNS0_10time_pointIT_S8_EERKNSC_ISD_S9_EE, symObjAddr: 0xC10, symBinAddr: 0x10000437C, symSize: 0x58 }
  - { offsetInCU: 0x34D1, offset: 0x34D1, size: 0x8, addend: 0x0, symName: __ZNSt3__16chrono13duration_castB8ue170006INS0_8durationIfNS_5ratioILl1ELl1000EEEEExNS3_ILl1ELl1000000000EEEEENS_9enable_ifIXsr13__is_durationIT_EE5valueES8_E4typeERKNS2_IT0_T1_EE, symObjAddr: 0x40F8, symBinAddr: 0x100007864, symSize: 0x30 }
  - { offsetInCU: 0x3A44, offset: 0x3A44, size: 0x8, addend: 0x0, symName: __ZNSt3__124__put_character_sequenceB8ue170006IcNS_11char_traitsIcEEEERNS_13basic_ostreamIT_T0_EES7_PKS4_m, symObjAddr: 0x344C, symBinAddr: 0x100006BB8, symSize: 0x1F4 }
  - { offsetInCU: 0x5B9B, offset: 0x5B9B, size: 0x8, addend: 0x0, symName: __ZNSt3__1lsB8ue170006INS_11char_traitsIcEEEERNS_13basic_ostreamIcT_EES6_PKc, symObjAddr: 0x2F4, symBinAddr: 0x100003A60, symSize: 0x48 }
  - { offsetInCU: 0x5E7B, offset: 0x5E7B, size: 0x8, addend: 0x0, symName: __ZNSt3__113__countl_zeroB8ue170006IjEEiT_, symObjAddr: 0x2A30, symBinAddr: 0x10000619C, symSize: 0x54 }
  - { offsetInCU: 0x5EB0, offset: 0x5EB0, size: 0x8, addend: 0x0, symName: __ZNSt3__112__libcpp_clzB8ue170006Ej, symObjAddr: 0x2EF8, symBinAddr: 0x100006664, symSize: 0x18 }
  - { offsetInCU: 0x6C16, offset: 0x6C16, size: 0x8, addend: 0x0, symName: __ZNSt3__116__pad_and_outputB8ue170006IcNS_11char_traitsIcEEEENS_19ostreambuf_iteratorIT_T0_EES6_PKS4_S8_S8_RNS_8ios_baseES4_, symObjAddr: 0x36A4, symBinAddr: 0x100006E10, symSize: 0x248 }
  - { offsetInCU: 0x6CE5, offset: 0x6CE5, size: 0x8, addend: 0x0, symName: __ZNSt3__112__to_addressB8ue170006IKcEEPT_S3_, symObjAddr: 0x3BE8, symBinAddr: 0x100007354, symSize: 0x14 }
  - { offsetInCU: 0x6D1A, offset: 0x6D1A, size: 0x8, addend: 0x0, symName: __ZNSt3__130__libcpp_is_constant_evaluatedB8ue170006Ev, symObjAddr: 0x3D14, symBinAddr: 0x100007480, symSize: 0xC }
  - { offsetInCU: 0x6D6A, offset: 0x6D6A, size: 0x8, addend: 0x0, symName: __ZNSt3__19use_facetB8ue170006INS_5ctypeIcEEEERKT_RKNS_6localeE, symObjAddr: 0x3EC4, symBinAddr: 0x100007630, symSize: 0x2C }
  - { offsetInCU: 0x7237, offset: 0x7237, size: 0x8, addend: 0x0, symName: __ZNSt3__118__constexpr_strlenB8ue170006EPKc, symObjAddr: 0x3F28, symBinAddr: 0x100007694, symSize: 0x24 }
  - { offsetInCU: 0x7C37, offset: 0x7C37, size: 0x8, addend: 0x0, symName: __ZNSt3__124uniform_int_distributionIhEclINS_26linear_congruential_engineIjLj48271ELj0ELj2147483647EEEEEhRT_RKNS1_10param_typeE, symObjAddr: 0x2818, symBinAddr: 0x100005F84, symSize: 0x188 }
  - { offsetInCU: 0x7E41, offset: 0x7E41, size: 0x8, addend: 0x0, symName: __ZNKSt3__16chrono15__duration_castINS0_8durationIxNS_5ratioILl1ELl1000000000EEEEENS2_IfNS3_ILl1ELl1000EEEEENS3_ILl1ELl1000000EEELb1ELb0EEclB8ue170006ERKS5_, symObjAddr: 0x4128, symBinAddr: 0x100007894, symSize: 0x54 }
  - { offsetInCU: 0xA071, offset: 0xA071, size: 0x8, addend: 0x0, symName: _main, symObjAddr: 0x0, symBinAddr: 0x10000376C, symSize: 0x2F4 }
  - { offsetInCU: 0xA161, offset: 0xA161, size: 0x8, addend: 0x0, symName: __ZNSt3__112basic_stringIcNS_11char_traitsIcEENS_9allocatorIcEEEC1B8ue170006ILi0EEEPKc, symObjAddr: 0x33C, symBinAddr: 0x100003AA8, symSize: 0x34 }
  - { offsetInCU: 0xA28A, offset: 0xA28A, size: 0x8, addend: 0x0, symName: __ZN8PlatformC1EPKciiii, symObjAddr: 0x37C, symBinAddr: 0x100003AE8, symSize: 0x54 }
  - { offsetInCU: 0xA79D, offset: 0xA79D, size: 0x8, addend: 0x0, symName: __ZN5CHIP8C1Ev, symObjAddr: 0x3D0, symBinAddr: 0x100003B3C, symSize: 0x2C }
  - { offsetInCU: 0xA7C5, offset: 0xA7C5, size: 0x8, addend: 0x0, symName: __ZN5CHIP87LoadROMEPKc, symObjAddr: 0x3FC, symBinAddr: 0x100003B68, symSize: 0x1F8 }
  - { offsetInCU: 0xA84A, offset: 0xA84A, size: 0x8, addend: 0x0, symName: __ZN8Platform12ProcessInputEPh, symObjAddr: 0x5F4, symBinAddr: 0x100003D60, symSize: 0x31C }
  - { offsetInCU: 0xA8A1, offset: 0xA8A1, size: 0x8, addend: 0x0, symName: __ZNSt3__16chrono8durationIfNS_5ratioILl1ELl1000EEEEC1B8ue170006IxNS2_ILl1ELl1000000000EEEEERKNS1_IT_T0_EEPNS_9enable_ifIXaasr13__no_overflowIS8_S3_EE5valueooL_ZNS_17integral_constantIbLb1EE5valueEEaaeqsr13__no_overflowIS8_S3_E4typeE3denLi1Entsr23treat_as_floating_pointIS7_EE5valueEvE4typeE, symObjAddr: 0xC68, symBinAddr: 0x1000043D4, symSize: 0x3C }
  - { offsetInCU: 0xA8F7, offset: 0xA8F7, size: 0x8, addend: 0x0, symName: __ZNKSt3__16chrono8durationIfNS_5ratioILl1ELl1000EEEE5countB8ue170006Ev, symObjAddr: 0xCA4, symBinAddr: 0x100004410, symSize: 0x18 }
  - { offsetInCU: 0xA91B, offset: 0xA91B, size: 0x8, addend: 0x0, symName: __ZN5CHIP85CycleEv, symObjAddr: 0xCBC, symBinAddr: 0x100004428, symSize: 0x140 }
  - { offsetInCU: 0xA93F, offset: 0xA93F, size: 0x8, addend: 0x0, symName: __ZN8Platform6UpdateEPKvi, symObjAddr: 0xDFC, symBinAddr: 0x100004568, symSize: 0x74 }
  - { offsetInCU: 0xA982, offset: 0xA982, size: 0x8, addend: 0x0, symName: __ZN8PlatformD1Ev, symObjAddr: 0xE70, symBinAddr: 0x1000045DC, symSize: 0x2C }
  - { offsetInCU: 0xA9AB, offset: 0xA9AB, size: 0x8, addend: 0x0, symName: __ZN8PlatformC2EPKciiii, symObjAddr: 0xE9C, symBinAddr: 0x100004608, symSize: 0xA4 }
  - { offsetInCU: 0xAA1F, offset: 0xAA1F, size: 0x8, addend: 0x0, symName: __ZN5CHIP8C2Ev, symObjAddr: 0xF40, symBinAddr: 0x1000046AC, symSize: 0x588 }
  - { offsetInCU: 0xAAA2, offset: 0xAAA2, size: 0x8, addend: 0x0, symName: __ZNSt3__126linear_congruential_engineIjLj48271ELj0ELj2147483647EEC1B8ue170006Ej, symObjAddr: 0x14C8, symBinAddr: 0x100004C34, symSize: 0x34 }
  - { offsetInCU: 0xAAD9, offset: 0xAAD9, size: 0x8, addend: 0x0, symName: __ZNSt3__114numeric_limitsIhE3maxB8ue170006Ev, symObjAddr: 0x14FC, symBinAddr: 0x100004C68, symSize: 0x18 }
  - { offsetInCU: 0xAAED, offset: 0xAAED, size: 0x8, addend: 0x0, symName: __ZNSt3__124uniform_int_distributionIhEC1Ehh, symObjAddr: 0x1514, symBinAddr: 0x100004C80, symSize: 0x3C }
  - { offsetInCU: 0xAB31, offset: 0xAB31, size: 0x8, addend: 0x0, symName: __ZNSt3__126linear_congruential_engineIjLj48271ELj0ELj2147483647EEclB8ue170006Ev, symObjAddr: 0x1550, symBinAddr: 0x100004CBC, symSize: 0x34 }
  - { offsetInCU: 0xAB55, offset: 0xAB55, size: 0x8, addend: 0x0, symName: __ZN5CHIP86Table0Ev, symObjAddr: 0x1584, symBinAddr: 0x100004CF0, symSize: 0x90 }
  - { offsetInCU: 0xAB7A, offset: 0xAB7A, size: 0x8, addend: 0x0, symName: __ZN5CHIP87OP_1nnnEv, symObjAddr: 0x1614, symBinAddr: 0x100004D80, symSize: 0x2C }
  - { offsetInCU: 0xABAD, offset: 0xABAD, size: 0x8, addend: 0x0, symName: __ZN5CHIP87OP_2nnnEv, symObjAddr: 0x1640, symBinAddr: 0x100004DAC, symSize: 0x60 }
  - { offsetInCU: 0xABE0, offset: 0xABE0, size: 0x8, addend: 0x0, symName: __ZN5CHIP87OP_3xkkEv, symObjAddr: 0x16A0, symBinAddr: 0x100004E0C, symSize: 0x64 }
  - { offsetInCU: 0xAC21, offset: 0xAC21, size: 0x8, addend: 0x0, symName: __ZN5CHIP87OP_4xkkEv, symObjAddr: 0x1704, symBinAddr: 0x100004E70, symSize: 0x64 }
  - { offsetInCU: 0xAC62, offset: 0xAC62, size: 0x8, addend: 0x0, symName: __ZN5CHIP87OP_5xy0Ev, symObjAddr: 0x1768, symBinAddr: 0x100004ED4, symSize: 0x70 }
  - { offsetInCU: 0xACA3, offset: 0xACA3, size: 0x8, addend: 0x0, symName: __ZN5CHIP87OP_6xkkEv, symObjAddr: 0x17D8, symBinAddr: 0x100004F44, symSize: 0x40 }
  - { offsetInCU: 0xACE4, offset: 0xACE4, size: 0x8, addend: 0x0, symName: __ZN5CHIP87OP_7xkkEv, symObjAddr: 0x1818, symBinAddr: 0x100004F84, symSize: 0x48 }
  - { offsetInCU: 0xAD24, offset: 0xAD24, size: 0x8, addend: 0x0, symName: __ZN5CHIP86Table8Ev, symObjAddr: 0x1860, symBinAddr: 0x100004FCC, symSize: 0x90 }
  - { offsetInCU: 0xAD49, offset: 0xAD49, size: 0x8, addend: 0x0, symName: __ZN5CHIP87OP_9xy0Ev, symObjAddr: 0x18F0, symBinAddr: 0x10000505C, symSize: 0x70 }
  - { offsetInCU: 0xAD8C, offset: 0xAD8C, size: 0x8, addend: 0x0, symName: __ZN5CHIP87OP_AnnnEv, symObjAddr: 0x1960, symBinAddr: 0x1000050CC, symSize: 0x2C }
  - { offsetInCU: 0xADC0, offset: 0xADC0, size: 0x8, addend: 0x0, symName: __ZN5CHIP87OP_BnnnEv, symObjAddr: 0x198C, symBinAddr: 0x1000050F8, symSize: 0x34 }
  - { offsetInCU: 0xADF3, offset: 0xADF3, size: 0x8, addend: 0x0, symName: __ZN5CHIP87OP_CxkkEv, symObjAddr: 0x19C0, symBinAddr: 0x10000512C, symSize: 0x70 }
  - { offsetInCU: 0xAE36, offset: 0xAE36, size: 0x8, addend: 0x0, symName: __ZN5CHIP87OP_DxynEv, symObjAddr: 0x1A30, symBinAddr: 0x10000519C, symSize: 0x1A0 }
  - { offsetInCU: 0xAF2C, offset: 0xAF2C, size: 0x8, addend: 0x0, symName: __ZN5CHIP86TableEEv, symObjAddr: 0x1BD0, symBinAddr: 0x10000533C, symSize: 0x90 }
  - { offsetInCU: 0xAF50, offset: 0xAF50, size: 0x8, addend: 0x0, symName: __ZN5CHIP86TableFEv, symObjAddr: 0x1C60, symBinAddr: 0x1000053CC, symSize: 0x8C }
  - { offsetInCU: 0xAF75, offset: 0xAF75, size: 0x8, addend: 0x0, symName: __ZN5CHIP87OP_NULLEv, symObjAddr: 0x1CEC, symBinAddr: 0x100005458, symSize: 0x10 }
  - { offsetInCU: 0xAF99, offset: 0xAF99, size: 0x8, addend: 0x0, symName: __ZN5CHIP87OP_00E0Ev, symObjAddr: 0x1CFC, symBinAddr: 0x100005468, symSize: 0x30 }
  - { offsetInCU: 0xAFBE, offset: 0xAFBE, size: 0x8, addend: 0x0, symName: __ZN5CHIP87OP_00EEEv, symObjAddr: 0x1D2C, symBinAddr: 0x100005498, symSize: 0x4C }
  - { offsetInCU: 0xAFE3, offset: 0xAFE3, size: 0x8, addend: 0x0, symName: __ZN5CHIP87OP_8xy0Ev, symObjAddr: 0x1D78, symBinAddr: 0x1000054E4, symSize: 0x58 }
  - { offsetInCU: 0xB024, offset: 0xB024, size: 0x8, addend: 0x0, symName: __ZN5CHIP87OP_8xy1Ev, symObjAddr: 0x1DD0, symBinAddr: 0x10000553C, symSize: 0x54 }
  - { offsetInCU: 0xB065, offset: 0xB065, size: 0x8, addend: 0x0, symName: __ZN5CHIP87OP_8xy2Ev, symObjAddr: 0x1E24, symBinAddr: 0x100005590, symSize: 0x54 }
  - { offsetInCU: 0xB0A6, offset: 0xB0A6, size: 0x8, addend: 0x0, symName: __ZN5CHIP87OP_8xy3Ev, symObjAddr: 0x1E78, symBinAddr: 0x1000055E4, symSize: 0x54 }
  - { offsetInCU: 0xB0E7, offset: 0xB0E7, size: 0x8, addend: 0x0, symName: __ZN5CHIP87OP_8xy4Ev, symObjAddr: 0x1ECC, symBinAddr: 0x100005638, symSize: 0x7C }
  - { offsetInCU: 0xB136, offset: 0xB136, size: 0x8, addend: 0x0, symName: __ZN5CHIP87OP_8xy5Ev, symObjAddr: 0x1F48, symBinAddr: 0x1000056B4, symSize: 0x80 }
  - { offsetInCU: 0xB177, offset: 0xB177, size: 0x8, addend: 0x0, symName: __ZN5CHIP87OP_8xy6Ev, symObjAddr: 0x1FC8, symBinAddr: 0x100005734, symSize: 0x4C }
  - { offsetInCU: 0xB1AB, offset: 0xB1AB, size: 0x8, addend: 0x0, symName: __ZN5CHIP87OP_8xy7Ev, symObjAddr: 0x2014, symBinAddr: 0x100005780, symSize: 0x80 }
  - { offsetInCU: 0xB1EE, offset: 0xB1EE, size: 0x8, addend: 0x0, symName: __ZN5CHIP87OP_8xyEEv, symObjAddr: 0x2094, symBinAddr: 0x100005800, symSize: 0x50 }
  - { offsetInCU: 0xB222, offset: 0xB222, size: 0x8, addend: 0x0, symName: __ZN5CHIP87OP_ExA1Ev, symObjAddr: 0x20E4, symBinAddr: 0x100005850, symSize: 0x7C }
  - { offsetInCU: 0xB265, offset: 0xB265, size: 0x8, addend: 0x0, symName: __ZN5CHIP87OP_Ex9EEv, symObjAddr: 0x2160, symBinAddr: 0x1000058CC, symSize: 0x7C }
  - { offsetInCU: 0xB2A8, offset: 0xB2A8, size: 0x8, addend: 0x0, symName: __ZN5CHIP87OP_Fx07Ev, symObjAddr: 0x21DC, symBinAddr: 0x100005948, symSize: 0x44 }
  - { offsetInCU: 0xB2DC, offset: 0xB2DC, size: 0x8, addend: 0x0, symName: __ZN5CHIP87OP_Fx0AEv, symObjAddr: 0x2220, symBinAddr: 0x10000598C, symSize: 0xCC }
  - { offsetInCU: 0xB33D, offset: 0xB33D, size: 0x8, addend: 0x0, symName: __ZN5CHIP87OP_Fx15Ev, symObjAddr: 0x22EC, symBinAddr: 0x100005A58, symSize: 0x48 }
  - { offsetInCU: 0xB371, offset: 0xB371, size: 0x8, addend: 0x0, symName: __ZN5CHIP87OP_Fx18Ev, symObjAddr: 0x2334, symBinAddr: 0x100005AA0, symSize: 0x48 }
  - { offsetInCU: 0xB3A5, offset: 0xB3A5, size: 0x8, addend: 0x0, symName: __ZN5CHIP87OP_Fx1EEv, symObjAddr: 0x237C, symBinAddr: 0x100005AE8, symSize: 0x3C }
  - { offsetInCU: 0xB3D9, offset: 0xB3D9, size: 0x8, addend: 0x0, symName: __ZN5CHIP87OP_Fx29Ev, symObjAddr: 0x23B8, symBinAddr: 0x100005B24, symSize: 0x54 }
  - { offsetInCU: 0xB41C, offset: 0xB41C, size: 0x8, addend: 0x0, symName: __ZN5CHIP87OP_Fx33Ev, symObjAddr: 0x240C, symBinAddr: 0x100005B78, symSize: 0xB8 }
  - { offsetInCU: 0xB45F, offset: 0xB45F, size: 0x8, addend: 0x0, symName: __ZN5CHIP87OP_Fx55Ev, symObjAddr: 0x24C4, symBinAddr: 0x100005C30, symSize: 0x90 }
  - { offsetInCU: 0xB4B1, offset: 0xB4B1, size: 0x8, addend: 0x0, symName: __ZN5CHIP87OP_Fx65Ev, symObjAddr: 0x2554, symBinAddr: 0x100005CC0, symSize: 0x88 }
  - { offsetInCU: 0xB503, offset: 0xB503, size: 0x8, addend: 0x0, symName: __ZNSt3__126linear_congruential_engineIjLj48271ELj0ELj2147483647EEC2B8ue170006Ej, symObjAddr: 0x25DC, symBinAddr: 0x100005D48, symSize: 0x34 }
  - { offsetInCU: 0xB539, offset: 0xB539, size: 0x8, addend: 0x0, symName: __ZNSt3__126linear_congruential_engineIjLj48271ELj0ELj2147483647EE4seedB8ue170006Ej, symObjAddr: 0x2610, symBinAddr: 0x100005D7C, symSize: 0x2C }
  - { offsetInCU: 0xB56C, offset: 0xB56C, size: 0x8, addend: 0x0, symName: __ZNSt3__126linear_congruential_engineIjLj48271ELj0ELj2147483647EE4seedB8ue170006ENS_17integral_constantIbLb0EEENS2_IbLb1EEEj, symObjAddr: 0x263C, symBinAddr: 0x100005DA8, symSize: 0x74 }
  - { offsetInCU: 0xB5B8, offset: 0xB5B8, size: 0x8, addend: 0x0, symName: __ZNSt3__123__libcpp_numeric_limitsIhLb1EE3maxB8ue170006Ev, symObjAddr: 0x26B0, symBinAddr: 0x100005E1C, symSize: 0x8 }
  - { offsetInCU: 0xB5CC, offset: 0xB5CC, size: 0x8, addend: 0x0, symName: __ZNSt3__124uniform_int_distributionIhEC2Ehh, symObjAddr: 0x26B8, symBinAddr: 0x100005E24, symSize: 0x3C }
  - { offsetInCU: 0xB611, offset: 0xB611, size: 0x8, addend: 0x0, symName: __ZNSt3__124uniform_int_distributionIhE10param_typeC1B8ue170006Ehh, symObjAddr: 0x26F4, symBinAddr: 0x100005E60, symSize: 0x3C }
  - { offsetInCU: 0xB656, offset: 0xB656, size: 0x8, addend: 0x0, symName: __ZNSt3__124uniform_int_distributionIhE10param_typeC2B8ue170006Ehh, symObjAddr: 0x2730, symBinAddr: 0x100005E9C, symSize: 0x2C }
  - { offsetInCU: 0xB6A6, offset: 0xB6A6, size: 0x8, addend: 0x0, symName: __ZNSt3__18__lce_taILy48271ELy0ELy2147483647ELy4294967295ELb1EE4nextB8ue170006Ej, symObjAddr: 0x275C, symBinAddr: 0x100005EC8, symSize: 0x88 }
  - { offsetInCU: 0xB71C, offset: 0xB71C, size: 0x8, addend: 0x0, symName: __ZNSt3__124uniform_int_distributionIhEclB8ue170006INS_26linear_congruential_engineIjLj48271ELj0ELj2147483647EEEEEhRT_, symObjAddr: 0x27E4, symBinAddr: 0x100005F50, symSize: 0x34 }
  - { offsetInCU: 0xB758, offset: 0xB758, size: 0x8, addend: 0x0, symName: __ZNKSt3__124uniform_int_distributionIhE10param_type1bB8ue170006Ev, symObjAddr: 0x29A0, symBinAddr: 0x10000610C, symSize: 0x18 }
  - { offsetInCU: 0xB77D, offset: 0xB77D, size: 0x8, addend: 0x0, symName: __ZNKSt3__124uniform_int_distributionIhE10param_type1aB8ue170006Ev, symObjAddr: 0x29B8, symBinAddr: 0x100006124, symSize: 0x18 }
  - { offsetInCU: 0xB7A2, offset: 0xB7A2, size: 0x8, addend: 0x0, symName: __ZNSt3__125__independent_bits_engineINS_26linear_congruential_engineIjLj48271ELj0ELj2147483647EEEjEC1ERS2_m, symObjAddr: 0x29D0, symBinAddr: 0x10000613C, symSize: 0x3C }
  - { offsetInCU: 0xB7E7, offset: 0xB7E7, size: 0x8, addend: 0x0, symName: __ZNSt3__125__independent_bits_engineINS_26linear_congruential_engineIjLj48271ELj0ELj2147483647EEEjEclB8ue170006Ev, symObjAddr: 0x2A0C, symBinAddr: 0x100006178, symSize: 0x24 }
  - { offsetInCU: 0xB80C, offset: 0xB80C, size: 0x8, addend: 0x0, symName: __ZNSt3__114numeric_limitsIjE3maxB8ue170006Ev, symObjAddr: 0x2A84, symBinAddr: 0x1000061F0, symSize: 0x14 }
  - { offsetInCU: 0xB820, offset: 0xB820, size: 0x8, addend: 0x0, symName: __ZNSt3__125__independent_bits_engineINS_26linear_congruential_engineIjLj48271ELj0ELj2147483647EEEjEC2ERS2_m, symObjAddr: 0x2A98, symBinAddr: 0x100006204, symSize: 0x270 }
  - { offsetInCU: 0xB865, offset: 0xB865, size: 0x8, addend: 0x0, symName: __ZNSt3__125__independent_bits_engineINS_26linear_congruential_engineIjLj48271ELj0ELj2147483647EEEjE6__evalENS_17integral_constantIbLb1EEE, symObjAddr: 0x2D08, symBinAddr: 0x100006474, symSize: 0x1E8 }
  - { offsetInCU: 0xB926, offset: 0xB926, size: 0x8, addend: 0x0, symName: __ZNSt3__126linear_congruential_engineIjLj48271ELj0ELj2147483647EE3minB8ue170006Ev, symObjAddr: 0x2EF0, symBinAddr: 0x10000665C, symSize: 0x8 }
  - { offsetInCU: 0xB93A, offset: 0xB93A, size: 0x8, addend: 0x0, symName: __ZNSt3__123__libcpp_numeric_limitsIjLb1EE3maxB8ue170006Ev, symObjAddr: 0x2F10, symBinAddr: 0x10000667C, symSize: 0x8 }
  - { offsetInCU: 0xBA6F, offset: 0xBA6F, size: 0x8, addend: 0x0, symName: __ZNSt3__114basic_ifstreamIcNS_11char_traitsIcEEEC1EPKcj, symObjAddr: 0x2F18, symBinAddr: 0x100006684, symSize: 0x17C }
  - { offsetInCU: 0xBAB8, offset: 0xBAB8, size: 0x8, addend: 0x0, symName: __ZNKSt3__114basic_ifstreamIcNS_11char_traitsIcEEE7is_openEv, symObjAddr: 0x3094, symBinAddr: 0x100006800, symSize: 0x2C }
  - { offsetInCU: 0xBADF, offset: 0xBADF, size: 0x8, addend: 0x0, symName: __ZNKSt3__14fposI11__mbstate_tEcvxB8ue170006Ev, symObjAddr: 0x30C0, symBinAddr: 0x10000682C, symSize: 0x18 }
  - { offsetInCU: 0xBB04, offset: 0xBB04, size: 0x8, addend: 0x0, symName: __ZNSt3__114basic_ifstreamIcNS_11char_traitsIcEEE5closeEv, symObjAddr: 0x30D8, symBinAddr: 0x100006844, symSize: 0x58 }
  - { offsetInCU: 0xBB30, offset: 0xBB30, size: 0x8, addend: 0x0, symName: __ZNSt3__114basic_ifstreamIcNS_11char_traitsIcEEED1Ev, symObjAddr: 0x3130, symBinAddr: 0x10000689C, symSize: 0x70 }
  - { offsetInCU: 0xBB5C, offset: 0xBB5C, size: 0x8, addend: 0x0, symName: __ZNSt3__19basic_iosIcNS_11char_traitsIcEEEC2B8ue170006Ev, symObjAddr: 0x31A0, symBinAddr: 0x10000690C, symSize: 0x44 }
  - { offsetInCU: 0xBB85, offset: 0xBB85, size: 0x8, addend: 0x0, symName: __ZNSt3__113basic_istreamIcNS_11char_traitsIcEEEC2B8ue170006EPNS_15basic_streambufIcS2_EE, symObjAddr: 0x31E4, symBinAddr: 0x100006950, symSize: 0x64 }
  - { offsetInCU: 0xBBC7, offset: 0xBBC7, size: 0x8, addend: 0x0, symName: __ZNSt3__19basic_iosIcNS_11char_traitsIcEEE8setstateB8ue170006Ej, symObjAddr: 0x3248, symBinAddr: 0x1000069B4, symSize: 0x2C }
  - { offsetInCU: 0xBBFB, offset: 0xBBFB, size: 0x8, addend: 0x0, symName: __ZNSt3__18ios_baseC2B8ue170006Ev, symObjAddr: 0x3274, symBinAddr: 0x1000069E0, symSize: 0x24 }
  - { offsetInCU: 0xBC24, offset: 0xBC24, size: 0x8, addend: 0x0, symName: __ZNSt3__19basic_iosIcNS_11char_traitsIcEEE4initB8ue170006EPNS_15basic_streambufIcS2_EE, symObjAddr: 0x3298, symBinAddr: 0x100006A04, symSize: 0x44 }
  - { offsetInCU: 0xBC5A, offset: 0xBC5A, size: 0x8, addend: 0x0, symName: __ZNSt3__111char_traitsIcE3eofB8ue170006Ev, symObjAddr: 0x32DC, symBinAddr: 0x100006A48, symSize: 0x8 }
  - { offsetInCU: 0xBC6E, offset: 0xBC6E, size: 0x8, addend: 0x0, symName: __ZNSt3__18ios_base8setstateB8ue170006Ej, symObjAddr: 0x32E4, symBinAddr: 0x100006A50, symSize: 0x34 }
  - { offsetInCU: 0xBCA4, offset: 0xBCA4, size: 0x8, addend: 0x0, symName: __ZNKSt3__113basic_filebufIcNS_11char_traitsIcEEE7is_openEv, symObjAddr: 0x3318, symBinAddr: 0x100006A84, symSize: 0x24 }
  - { offsetInCU: 0xBCCB, offset: 0xBCCB, size: 0x8, addend: 0x0, symName: __ZNSt3__114basic_ifstreamIcNS_11char_traitsIcEEED2Ev, symObjAddr: 0x333C, symBinAddr: 0x100006AA8, symSize: 0x9C }
  - { offsetInCU: 0xBD03, offset: 0xBD03, size: 0x8, addend: 0x0, symName: __ZTv0_n24_NSt3__114basic_ifstreamIcNS_11char_traitsIcEEED1Ev, symObjAddr: 0x33D8, symBinAddr: 0x100006B44, symSize: 0x28 }
  - { offsetInCU: 0xBD1A, offset: 0xBD1A, size: 0x8, addend: 0x0, symName: __ZN8PlatformD2Ev, symObjAddr: 0x3400, symBinAddr: 0x100006B6C, symSize: 0x4C }
  - { offsetInCU: 0xBD43, offset: 0xBD43, size: 0x8, addend: 0x0, symName: __ZNSt3__111char_traitsIcE6lengthB8ue170006EPKc, symObjAddr: 0x3640, symBinAddr: 0x100006DAC, symSize: 0x48 }
  - { offsetInCU: 0xBD84, offset: 0xBD84, size: 0x8, addend: 0x0, symName: __ZNKSt3__113basic_ostreamIcNS_11char_traitsIcEEE6sentrycvbB8ue170006Ev, symObjAddr: 0x3688, symBinAddr: 0x100006DF4, symSize: 0x1C }
  - { offsetInCU: 0xBDA9, offset: 0xBDA9, size: 0x8, addend: 0x0, symName: __ZNSt3__119ostreambuf_iteratorIcNS_11char_traitsIcEEEC1B8ue170006ERNS_13basic_ostreamIcS2_EE, symObjAddr: 0x38EC, symBinAddr: 0x100007058, symSize: 0x34 }
  - { offsetInCU: 0xBDE0, offset: 0xBDE0, size: 0x8, addend: 0x0, symName: __ZNKSt3__18ios_base5flagsB8ue170006Ev, symObjAddr: 0x3920, symBinAddr: 0x10000708C, symSize: 0x18 }
  - { offsetInCU: 0xBE07, offset: 0xBE07, size: 0x8, addend: 0x0, symName: __ZNKSt3__19basic_iosIcNS_11char_traitsIcEEE4fillB8ue170006Ev, symObjAddr: 0x3938, symBinAddr: 0x1000070A4, symSize: 0x64 }
  - { offsetInCU: 0xBE2E, offset: 0xBE2E, size: 0x8, addend: 0x0, symName: __ZNKSt3__119ostreambuf_iteratorIcNS_11char_traitsIcEEE6failedB8ue170006Ev, symObjAddr: 0x399C, symBinAddr: 0x100007108, symSize: 0x24 }
  - { offsetInCU: 0xBE53, offset: 0xBE53, size: 0x8, addend: 0x0, symName: __ZNKSt3__18ios_base5widthB8ue170006Ev, symObjAddr: 0x39C0, symBinAddr: 0x10000712C, symSize: 0x18 }
  - { offsetInCU: 0xBE79, offset: 0xBE79, size: 0x8, addend: 0x0, symName: __ZNSt3__115basic_streambufIcNS_11char_traitsIcEEE5sputnB8ue170006EPKcl, symObjAddr: 0x39D8, symBinAddr: 0x100007144, symSize: 0x3C }
  - { offsetInCU: 0xBEBA, offset: 0xBEBA, size: 0x8, addend: 0x0, symName: __ZNSt3__112basic_stringIcNS_11char_traitsIcEENS_9allocatorIcEEEC1B8ue170006Emc, symObjAddr: 0x3A14, symBinAddr: 0x100007180, symSize: 0x3C }
  - { offsetInCU: 0xBF00, offset: 0xBF00, size: 0x8, addend: 0x0, symName: __ZNKSt3__112basic_stringIcNS_11char_traitsIcEENS_9allocatorIcEEE4dataB8ue170006Ev, symObjAddr: 0x3A50, symBinAddr: 0x1000071BC, symSize: 0x28 }
  - { offsetInCU: 0xBF25, offset: 0xBF25, size: 0x8, addend: 0x0, symName: __ZNSt3__18ios_base5widthB8ue170006El, symObjAddr: 0x3A78, symBinAddr: 0x1000071E4, symSize: 0x2C }
  - { offsetInCU: 0xBF6A, offset: 0xBF6A, size: 0x8, addend: 0x0, symName: __ZNSt3__112basic_stringIcNS_11char_traitsIcEENS_9allocatorIcEEEC2B8ue170006Emc, symObjAddr: 0x3AA4, symBinAddr: 0x100007210, symSize: 0x4C }
  - { offsetInCU: 0xBFB6, offset: 0xBFB6, size: 0x8, addend: 0x0, symName: __ZNSt3__117__compressed_pairINS_12basic_stringIcNS_11char_traitsIcEENS_9allocatorIcEEE5__repES5_EC1B8ue170006INS_18__default_init_tagESA_EEOT_OT0_, symObjAddr: 0x3AF0, symBinAddr: 0x10000725C, symSize: 0x3C }
  - { offsetInCU: 0xC00D, offset: 0xC00D, size: 0x8, addend: 0x0, symName: __ZNSt3__117__compressed_pairINS_12basic_stringIcNS_11char_traitsIcEENS_9allocatorIcEEE5__repES5_EC2B8ue170006INS_18__default_init_tagESA_EEOT_OT0_, symObjAddr: 0x3B2C, symBinAddr: 0x100007298, symSize: 0x3C }
  - { offsetInCU: 0xC064, offset: 0xC064, size: 0x8, addend: 0x0, symName: __ZNSt3__122__compressed_pair_elemINS_12basic_stringIcNS_11char_traitsIcEENS_9allocatorIcEEE5__repELi0ELb0EEC2B8ue170006ENS_18__default_init_tagE, symObjAddr: 0x3B68, symBinAddr: 0x1000072D4, symSize: 0x14 }
  - { offsetInCU: 0xC098, offset: 0xC098, size: 0x8, addend: 0x0, symName: __ZNSt3__122__compressed_pair_elemINS_9allocatorIcEELi1ELb1EEC2B8ue170006ENS_18__default_init_tagE, symObjAddr: 0x3B7C, symBinAddr: 0x1000072E8, symSize: 0x2C }
  - { offsetInCU: 0xC0CC, offset: 0xC0CC, size: 0x8, addend: 0x0, symName: __ZNSt3__19allocatorIcEC2B8ue170006Ev, symObjAddr: 0x3BA8, symBinAddr: 0x100007314, symSize: 0x2C }
  - { offsetInCU: 0xC0F5, offset: 0xC0F5, size: 0x8, addend: 0x0, symName: __ZNSt3__116__non_trivial_ifILb1ENS_9allocatorIcEEEC2B8ue170006Ev, symObjAddr: 0x3BD4, symBinAddr: 0x100007340, symSize: 0x14 }
  - { offsetInCU: 0xC11D, offset: 0xC11D, size: 0x8, addend: 0x0, symName: __ZNKSt3__112basic_stringIcNS_11char_traitsIcEENS_9allocatorIcEEE13__get_pointerB8ue170006Ev, symObjAddr: 0x3BFC, symBinAddr: 0x100007368, symSize: 0x54 }
  - { offsetInCU: 0xC141, offset: 0xC141, size: 0x8, addend: 0x0, symName: __ZNKSt3__112basic_stringIcNS_11char_traitsIcEENS_9allocatorIcEEE9__is_longB8ue170006Ev, symObjAddr: 0x3C50, symBinAddr: 0x1000073BC, symSize: 0x74 }
  - { offsetInCU: 0xC165, offset: 0xC165, size: 0x8, addend: 0x0, symName: __ZNKSt3__112basic_stringIcNS_11char_traitsIcEENS_9allocatorIcEEE18__get_long_pointerB8ue170006Ev, symObjAddr: 0x3CC4, symBinAddr: 0x100007430, symSize: 0x28 }
  - { offsetInCU: 0xC189, offset: 0xC189, size: 0x8, addend: 0x0, symName: __ZNKSt3__112basic_stringIcNS_11char_traitsIcEENS_9allocatorIcEEE19__get_short_pointerB8ue170006Ev, symObjAddr: 0x3CEC, symBinAddr: 0x100007458, symSize: 0x28 }
  - { offsetInCU: 0xC1AD, offset: 0xC1AD, size: 0x8, addend: 0x0, symName: __ZNKSt3__117__compressed_pairINS_12basic_stringIcNS_11char_traitsIcEENS_9allocatorIcEEE5__repES5_E5firstB8ue170006Ev, symObjAddr: 0x3D20, symBinAddr: 0x10000748C, symSize: 0x24 }
  - { offsetInCU: 0xC1D2, offset: 0xC1D2, size: 0x8, addend: 0x0, symName: __ZNKSt3__122__compressed_pair_elemINS_12basic_stringIcNS_11char_traitsIcEENS_9allocatorIcEEE5__repELi0ELb0EE5__getB8ue170006Ev, symObjAddr: 0x3D44, symBinAddr: 0x1000074B0, symSize: 0x14 }
  - { offsetInCU: 0xC1F7, offset: 0xC1F7, size: 0x8, addend: 0x0, symName: __ZNSt3__114pointer_traitsIPKcE10pointer_toB8ue170006ERS1_, symObjAddr: 0x3D58, symBinAddr: 0x1000074C4, symSize: 0x14 }
  - { offsetInCU: 0xC21A, offset: 0xC21A, size: 0x8, addend: 0x0, symName: __ZNSt3__119ostreambuf_iteratorIcNS_11char_traitsIcEEEC2B8ue170006ERNS_13basic_ostreamIcS2_EE, symObjAddr: 0x3D6C, symBinAddr: 0x1000074D8, symSize: 0x68 }
  - { offsetInCU: 0xC251, offset: 0xC251, size: 0x8, addend: 0x0, symName: __ZNKSt3__19basic_iosIcNS_11char_traitsIcEEE5rdbufB8ue170006Ev, symObjAddr: 0x3DD4, symBinAddr: 0x100007540, symSize: 0x24 }
  - { offsetInCU: 0xC278, offset: 0xC278, size: 0x8, addend: 0x0, symName: __ZNKSt3__18ios_base5rdbufB8ue170006Ev, symObjAddr: 0x3DF8, symBinAddr: 0x100007564, symSize: 0x18 }
  - { offsetInCU: 0xC29D, offset: 0xC29D, size: 0x8, addend: 0x0, symName: __ZNSt3__111char_traitsIcE11eq_int_typeB8ue170006Eii, symObjAddr: 0x3E10, symBinAddr: 0x10000757C, symSize: 0x28 }
  - { offsetInCU: 0xC2D0, offset: 0xC2D0, size: 0x8, addend: 0x0, symName: __ZNKSt3__19basic_iosIcNS_11char_traitsIcEEE5widenB8ue170006Ec, symObjAddr: 0x3E38, symBinAddr: 0x1000075A4, symSize: 0x8C }
  - { offsetInCU: 0xC337, offset: 0xC337, size: 0x8, addend: 0x0, symName: __ZNKSt3__15ctypeIcE5widenB8ue170006Ec, symObjAddr: 0x3EF0, symBinAddr: 0x10000765C, symSize: 0x38 }
  - { offsetInCU: 0xC36B, offset: 0xC36B, size: 0x8, addend: 0x0, symName: __ZNSt3__112basic_stringIcNS_11char_traitsIcEENS_9allocatorIcEEEC2B8ue170006ILi0EEEPKc, symObjAddr: 0x3F4C, symBinAddr: 0x1000076B8, symSize: 0x58 }
  - { offsetInCU: 0xC3C7, offset: 0xC3C7, size: 0x8, addend: 0x0, symName: __ZNKSt3__16chrono10time_pointINS0_12steady_clockENS0_8durationIxNS_5ratioILl1ELl1000000000EEEEEE16time_since_epochB8ue170006Ev, symObjAddr: 0x4014, symBinAddr: 0x100007780, symSize: 0x20 }
  - { offsetInCU: 0xC3EC, offset: 0xC3EC, size: 0x8, addend: 0x0, symName: __ZNKSt3__16chrono8durationIxNS_5ratioILl1ELl1000000000EEEE5countB8ue170006Ev, symObjAddr: 0x4034, symBinAddr: 0x1000077A0, symSize: 0x18 }
  - { offsetInCU: 0xC41B, offset: 0xC41B, size: 0x8, addend: 0x0, symName: __ZNSt3__16chrono8durationIxNS_5ratioILl1ELl1000000000EEEEC1B8ue170006IxEERKT_PNS_9enable_ifIXaasr14is_convertibleIS8_xEE5valueooL_ZNS_17integral_constantIbLb0EE5valueEEntsr23treat_as_floating_pointIS6_EE5valueEvE4typeE, symObjAddr: 0x404C, symBinAddr: 0x1000077B8, symSize: 0x3C }
  - { offsetInCU: 0xC467, offset: 0xC467, size: 0x8, addend: 0x0, symName: __ZNSt3__16chrono8durationIxNS_5ratioILl1ELl1000000000EEEEC2B8ue170006IxEERKT_PNS_9enable_ifIXaasr14is_convertibleIS8_xEE5valueooL_ZNS_17integral_constantIbLb0EE5valueEEntsr23treat_as_floating_pointIS6_EE5valueEvE4typeE, symObjAddr: 0x4088, symBinAddr: 0x1000077F4, symSize: 0x28 }
  - { offsetInCU: 0xC4B3, offset: 0xC4B3, size: 0x8, addend: 0x0, symName: __ZNSt3__16chrono8durationIfNS_5ratioILl1ELl1000EEEEC2B8ue170006IxNS2_ILl1ELl1000000000EEEEERKNS1_IT_T0_EEPNS_9enable_ifIXaasr13__no_overflowIS8_S3_EE5valueooL_ZNS_17integral_constantIbLb1EE5valueEEaaeqsr13__no_overflowIS8_S3_E4typeE3denLi1Entsr23treat_as_floating_pointIS7_EE5valueEvE4typeE, symObjAddr: 0x40B0, symBinAddr: 0x10000781C, symSize: 0x48 }
  - { offsetInCU: 0xC513, offset: 0xC513, size: 0x8, addend: 0x0, symName: __ZNSt3__16chrono8durationIfNS_5ratioILl1ELl1000EEEEC1B8ue170006IfEERKT_PNS_9enable_ifIXaasr14is_convertibleIS8_fEE5valueooL_ZNS_17integral_constantIbLb1EE5valueEEntsr23treat_as_floating_pointIS6_EE5valueEvE4typeE, symObjAddr: 0x417C, symBinAddr: 0x1000078E8, symSize: 0x3C }
  - { offsetInCU: 0xC55F, offset: 0xC55F, size: 0x8, addend: 0x0, symName: __ZNSt3__16chrono8durationIfNS_5ratioILl1ELl1000EEEEC2B8ue170006IfEERKT_PNS_9enable_ifIXaasr14is_convertibleIS8_fEE5valueooL_ZNS_17integral_constantIbLb1EE5valueEEntsr23treat_as_floating_pointIS6_EE5valueEvE4typeE, symObjAddr: 0x41B8, symBinAddr: 0x100007924, symSize: 0x28 }
...
